; Function Attrs: mustprogress nounwind uwtable
define internal void @_ZN32pxrInternal_v0_24__pxrReserved__12_GLOBAL__N_121Tf_RegistryStaticInitD2Ev(ptr nonnull readnone align 1 captures(none) %0) unnamed_addr #5 align 2 personality ptr @__gxx_personality_v0 {
  invoke void @_ZN32pxrInternal_v0_24__pxrReserved__19Tf_RegistryInitDtorEPKc(ptr noundef nonnull @.str.2)
          to label %2 unwind label %3

2:                                                ; preds = %1
  ret void

3:                                                ; preds = %1
  %4 = landingpad { ptr, i32 }
          catch ptr null
  %5 = extractvalue { ptr, i32 } %4, 0
  tail call void @__clang_call_terminate(ptr %5) #23
  unreachable
}